target datalayout = "e-m:e-p270:32:32-p271:32:32-p272:64:64-i64:64-i128:128-f80:128-n8:16:32:64-S128"
target triple = "x86_64-pc-linux-gnu"

%"struct.benchmark::internal::BenchTimeType" = type { i32, %union.anon }
%union.anon = type { i64 }
%"class.benchmark::internal::BenchmarkRunner" = type { %"struct.benchmark::internal::RunResults", ptr, ptr, %"struct.benchmark::internal::BenchTimeType", double, double, i8, i32, i8, i32, %"class.std::vector.4", %"class.std::vector.9", i64, ptr }
%"struct.benchmark::internal::RunResults" = type <{ %"class.std::vector", %"class.std::vector", i8, i8, [6 x i8] }>
%"class.std::vector" = type { %"struct.std::_Vector_base" }
%"struct.std::_Vector_base" = type { %"struct.std::_Vector_base<benchmark::BenchmarkReporter::Run, std::allocator<benchmark::BenchmarkReporter::Run>>::_Vector_impl" }
%"struct.std::_Vector_base<benchmark::BenchmarkReporter::Run, std::allocator<benchmark::BenchmarkReporter::Run>>::_Vector_impl" = type { %"struct.std::_Vector_base<benchmark::BenchmarkReporter::Run, std::allocator<benchmark::BenchmarkReporter::Run>>::_Vector_impl_data" }
%"struct.std::_Vector_base<benchmark::BenchmarkReporter::Run, std::allocator<benchmark::BenchmarkReporter::Run>>::_Vector_impl_data" = type { ptr, ptr, ptr }
%"class.std::vector.4" = type { %"struct.std::_Vector_base.5" }
%"struct.std::_Vector_base.5" = type { %"struct.std::_Vector_base<std::thread, std::allocator<std::thread>>::_Vector_impl" }
%"struct.std::_Vector_base<std::thread, std::allocator<std::thread>>::_Vector_impl" = type { %"struct.std::_Vector_base<std::thread, std::allocator<std::thread>>::_Vector_impl_data" }
%"struct.std::_Vector_base<std::thread, std::allocator<std::thread>>::_Vector_impl_data" = type { ptr, ptr, ptr }
%"class.std::vector.9" = type { %"struct.std::_Vector_base.10" }
%"struct.std::_Vector_base.10" = type { %"struct.std::_Vector_base<benchmark::MemoryManager::Result, std::allocator<benchmark::MemoryManager::Result>>::_Vector_impl" }
%"struct.std::_Vector_base<benchmark::MemoryManager::Result, std::allocator<benchmark::MemoryManager::Result>>::_Vector_impl" = type { %"struct.std::_Vector_base<benchmark::MemoryManager::Result, std::allocator<benchmark::MemoryManager::Result>>::_Vector_impl_data" }
%"struct.std::_Vector_base<benchmark::MemoryManager::Result, std::allocator<benchmark::MemoryManager::Result>>::_Vector_impl_data" = type { ptr, ptr, ptr }

; Function Attrs: mustprogress nounwind uwtable
define hidden noundef double @_ZNK9benchmark8internal15BenchmarkRunner17GetMinTimeToApplyEv(ptr noundef nonnull align 8 dereferenceable(184) %0) #7 align 2 {
  %2 = alloca ptr, align 8
  store ptr %0, ptr %2, align 8, !tbaa !32
  %3 = load ptr, ptr %2, align 8
  %4 = getelementptr inbounds nuw %"class.benchmark::internal::BenchmarkRunner", ptr %3, i32 0, i32 6
  %5 = load i8, ptr %4, align 8, !tbaa !61, !range !22, !noundef !23
  %6 = trunc i8 %5 to i1
  br i1 %6, label %7, label %10

7:                                                ; preds = %1
  %8 = getelementptr inbounds nuw %"class.benchmark::internal::BenchmarkRunner", ptr %3, i32 0, i32 4
  %9 = load double, ptr %8, align 8, !tbaa !58
  br label %13

10:                                               ; preds = %1
  %11 = getelementptr inbounds nuw %"class.benchmark::internal::BenchmarkRunner", ptr %3, i32 0, i32 5
  %12 = load double, ptr %11, align 8, !tbaa !60
  br label %13

13:                                               ; preds = %10, %7
  %14 = phi double [ %9, %7 ], [ %12, %10 ]
  ret double %14
}