; Function Attrs: mustprogress nofree norecurse nosync nounwind willreturn memory(argmem: read) uwtable
define hidden noundef double @_ZNK9benchmark8internal15BenchmarkRunner17GetMinTimeToApplyEv(ptr noundef nonnull readonly align 8 captures(none) dereferenceable(184) %0) local_unnamed_addr #12 align 2 {
  %2 = getelementptr inbounds nuw i8, ptr %0, i64 104
  %3 = load i8, ptr %2, align 8, !tbaa !72, !range !47, !noundef !48
  %4 = trunc nuw i8 %3 to i1
  %.in.v = select i1 %4, i64 88, i64 96
  %.in = getelementptr inbounds nuw i8, ptr %0, i64 %.in.v
  %5 = load double, ptr %.in, align 8, !tbaa !70
  ret double %5
}